target datalayout = "e-m:e-p270:32:32-p271:32:32-p272:64:64-i64:64-i128:128-f80:128-n8:16:32:64-S128"
target triple = "x86_64-pc-linux-gnu"

%struct.FxuHeapDouble = type { ptr, i32, i32, i32 }

; Function Attrs: nounwind uwtable
define void @Fxu_HeapDoubleStop(ptr noundef %0) #0 {
  %2 = alloca ptr, align 8
  store ptr %0, ptr %2, align 8, !tbaa !3
  %3 = load ptr, ptr %2, align 8, !tbaa !3
  %4 = getelementptr inbounds nuw %struct.FxuHeapDouble, ptr %3, i32 0, i32 0
  %5 = load ptr, ptr %4, align 8, !tbaa !13
  %6 = icmp ne ptr %5, null
  br i1 %6, label %7, label %13

7:                                                ; preds = %1
  %8 = load ptr, ptr %2, align 8, !tbaa !3
  %9 = getelementptr inbounds nuw %struct.FxuHeapDouble, ptr %8, i32 0, i32 0
  %10 = load ptr, ptr %9, align 8, !tbaa !13
  call void @free(ptr noundef %10) #6
  %11 = load ptr, ptr %2, align 8, !tbaa !3
  %12 = getelementptr inbounds nuw %struct.FxuHeapDouble, ptr %11, i32 0, i32 0
  store ptr null, ptr %12, align 8, !tbaa !13
  br label %14

13:                                               ; preds = %1
  br label %14

14:                                               ; preds = %13, %7
  %15 = load ptr, ptr %2, align 8, !tbaa !3
  %16 = icmp ne ptr %15, null
  br i1 %16, label %17, label %19

17:                                               ; preds = %14
  %18 = load ptr, ptr %2, align 8, !tbaa !3
  call void @free(ptr noundef %18) #6
  store ptr null, ptr %2, align 8, !tbaa !3
  br label %20

19:                                               ; preds = %14
  br label %20

20:                                               ; preds = %19, %17
  ret void
}